target datalayout = "e-m:e-p270:32:32-p271:32:32-p272:64:64-i64:64-i128:128-f80:128-n8:16:32:64-S128"
target triple = "x86_64-pc-linux-gnu"

@.str.4 = private unnamed_addr constant [2 x i8] c"\0A\00", align 1
@.str.5 = private unnamed_addr constant [40 x i8] c"    equiv_struct [options] [selection]\0A\00", align 1
@.str.6 = private unnamed_addr constant [76 x i8] c"This command adds additional $equiv cells based on the assumption that the\0A\00", align 1
@.str.7 = private unnamed_addr constant [81 x i8] c"gold and gate circuit are structurally equivalent. Note that this can introduce\0A\00", align 1
@.str.8 = private unnamed_addr constant [79 x i8] c"bad $equiv cells in cases where the netlists are not structurally equivalent,\0A\00", align 1
@.str.9 = private unnamed_addr constant [78 x i8] c"for example when analyzing circuits with cells with commutative inputs. This\0A\00", align 1
@.str.10 = private unnamed_addr constant [39 x i8] c"command will also de-duplicate gates.\0A\00", align 1
@.str.11 = private unnamed_addr constant [10 x i8] c"    -fwd\0A\00", align 1
@.str.12 = private unnamed_addr constant [77 x i8] c"        by default this command performans forward sweeps until nothing can\0A\00", align 1
@.str.13 = private unnamed_addr constant [74 x i8] c"        be merged by forwards sweeps, then backward sweeps until forward\0A\00", align 1
@.str.14 = private unnamed_addr constant [78 x i8] c"        sweeps are effective again. with this option set only forward sweeps\0A\00", align 1
@.str.15 = private unnamed_addr constant [24 x i8] c"        are performed.\0A\00", align 1
@.str.16 = private unnamed_addr constant [25 x i8] c"    -fwonly <cell_type>\0A\00", align 1
@.str.17 = private unnamed_addr constant [77 x i8] c"        add the specified cell type to the list of cell types that are only\0A\00", align 1
@.str.18 = private unnamed_addr constant [77 x i8] c"        merged in forward sweeps and never in backward sweeps. $equiv is in\0A\00", align 1
@.str.19 = private unnamed_addr constant [34 x i8] c"        this list automatically.\0A\00", align 1
@.str.20 = private unnamed_addr constant [13 x i8] c"    -icells\0A\00", align 1
@.str.21 = private unnamed_addr constant [75 x i8] c"        by default, the internal RTL and gate cell types are ignored. add\0A\00", align 1
@.str.22 = private unnamed_addr constant [73 x i8] c"        this option to also process those cell types with this command.\0A\00", align 1
@.str.23 = private unnamed_addr constant [18 x i8] c"    -maxiter <N>\0A\00", align 1
@.str.24 = private unnamed_addr constant [61 x i8] c"        maximum number of iterations to run before aborting\0A\00", align 1

; Function Attrs: mustprogress uwtable
define internal void @_ZN12_GLOBAL__N_115EquivStructPass4helpEv(ptr noundef nonnull align 8 dereferenceable(104) %0) unnamed_addr #4 align 2 {
  %2 = alloca ptr, align 8
  store ptr %0, ptr %2, align 8, !tbaa !6
  call void (ptr, ...) @_ZN5Yosys3logEPKcz(ptr noundef @.str.4)
  call void (ptr, ...) @_ZN5Yosys3logEPKcz(ptr noundef @.str.5)
  call void (ptr, ...) @_ZN5Yosys3logEPKcz(ptr noundef @.str.4)
  call void (ptr, ...) @_ZN5Yosys3logEPKcz(ptr noundef @.str.6)
  call void (ptr, ...) @_ZN5Yosys3logEPKcz(ptr noundef @.str.7)
  call void (ptr, ...) @_ZN5Yosys3logEPKcz(ptr noundef @.str.8)
  call void (ptr, ...) @_ZN5Yosys3logEPKcz(ptr noundef @.str.9)
  call void (ptr, ...) @_ZN5Yosys3logEPKcz(ptr noundef @.str.10)
  call void (ptr, ...) @_ZN5Yosys3logEPKcz(ptr noundef @.str.4)
  call void (ptr, ...) @_ZN5Yosys3logEPKcz(ptr noundef @.str.11)
  call void (ptr, ...) @_ZN5Yosys3logEPKcz(ptr noundef @.str.12)
  call void (ptr, ...) @_ZN5Yosys3logEPKcz(ptr noundef @.str.13)
  call void (ptr, ...) @_ZN5Yosys3logEPKcz(ptr noundef @.str.14)
  call void (ptr, ...) @_ZN5Yosys3logEPKcz(ptr noundef @.str.15)
  call void (ptr, ...) @_ZN5Yosys3logEPKcz(ptr noundef @.str.4)
  call void (ptr, ...) @_ZN5Yosys3logEPKcz(ptr noundef @.str.16)
  call void (ptr, ...) @_ZN5Yosys3logEPKcz(ptr noundef @.str.17)
  call void (ptr, ...) @_ZN5Yosys3logEPKcz(ptr noundef @.str.18)
  call void (ptr, ...) @_ZN5Yosys3logEPKcz(ptr noundef @.str.19)
  call void (ptr, ...) @_ZN5Yosys3logEPKcz(ptr noundef @.str.4)
  call void (ptr, ...) @_ZN5Yosys3logEPKcz(ptr noundef @.str.20)
  call void (ptr, ...) @_ZN5Yosys3logEPKcz(ptr noundef @.str.21)
  call void (ptr, ...) @_ZN5Yosys3logEPKcz(ptr noundef @.str.22)
  call void (ptr, ...) @_ZN5Yosys3logEPKcz(ptr noundef @.str.4)
  call void (ptr, ...) @_ZN5Yosys3logEPKcz(ptr noundef @.str.23)
  call void (ptr, ...) @_ZN5Yosys3logEPKcz(ptr noundef @.str.24)
  call void (ptr, ...) @_ZN5Yosys3logEPKcz(ptr noundef @.str.4)
  ret void
}